; Function Attrs: mustprogress nofree norecurse nosync nounwind sspstrong willreturn memory(argmem: readwrite) uwtable
define internal noundef i64 @fun_so_to_utf_32be(ptr readnone captures(none) %0, ptr noundef readonly captures(none) %1, i64 %2, ptr noundef writeonly captures(none) initializes((0, 4)) %3, i64 %4) #2 {
  store i8 0, ptr %3, align 1, !tbaa !6
  %6 = load i8, ptr %1, align 1, !tbaa !6
  %7 = zext i8 %6 to i32
  %.not = icmp sgt i8 %6, -1
  br i1 %.not, label %8, label %12

8:                                                ; preds = %5
  %9 = getelementptr inbounds nuw i8, ptr %3, i64 2
  store i8 0, ptr %9, align 1, !tbaa !6
  %10 = getelementptr inbounds nuw i8, ptr %3, i64 1
  store i8 0, ptr %10, align 1, !tbaa !6
  %11 = load i8, ptr %1, align 1, !tbaa !6
  br label %69

12:                                               ; preds = %5
  %13 = and i32 %7, 224
  %14 = icmp eq i32 %13, 192
  br i1 %14, label %15, label %27

15:                                               ; preds = %12
  %16 = getelementptr inbounds nuw i8, ptr %3, i64 1
  store i8 0, ptr %16, align 1, !tbaa !6
  %17 = load i8, ptr %1, align 1, !tbaa !6
  %18 = lshr i8 %17, 2
  %19 = and i8 %18, 7
  %20 = getelementptr inbounds nuw i8, ptr %3, i64 2
  store i8 %19, ptr %20, align 1, !tbaa !6
  %21 = load i8, ptr %1, align 1, !tbaa !6
  %22 = shl i8 %21, 6
  %23 = getelementptr inbounds nuw i8, ptr %1, i64 1
  %24 = load i8, ptr %23, align 1, !tbaa !6
  %25 = and i8 %24, 63
  %26 = or disjoint i8 %25, %22
  br label %69

27:                                               ; preds = %12
  %28 = and i32 %7, 240
  %29 = icmp eq i32 %28, 224
  br i1 %29, label %30, label %46

30:                                               ; preds = %27
  %31 = getelementptr inbounds nuw i8, ptr %3, i64 1
  store i8 0, ptr %31, align 1, !tbaa !6
  %32 = load i8, ptr %1, align 1, !tbaa !6
  %33 = shl i8 %32, 4
  %34 = getelementptr inbounds nuw i8, ptr %1, i64 1
  %35 = load i8, ptr %34, align 1, !tbaa !6
  %36 = lshr i8 %35, 2
  %37 = xor i8 %36, 32
  %38 = or i8 %37, %33
  %39 = getelementptr inbounds nuw i8, ptr %3, i64 2
  store i8 %38, ptr %39, align 1, !tbaa !6
  %40 = load i8, ptr %34, align 1, !tbaa !6
  %41 = shl i8 %40, 6
  %42 = getelementptr inbounds nuw i8, ptr %1, i64 2
  %43 = load i8, ptr %42, align 1, !tbaa !6
  %44 = xor i8 %43, -128
  %45 = or i8 %44, %41
  br label %69

46:                                               ; preds = %27
  %47 = shl i8 %6, 2
  %48 = and i8 %47, 28
  %49 = getelementptr inbounds nuw i8, ptr %1, i64 1
  %50 = load i8, ptr %49, align 1, !tbaa !6
  %51 = lshr i8 %50, 4
  %52 = and i8 %51, 3
  %53 = or disjoint i8 %52, %48
  %54 = getelementptr inbounds nuw i8, ptr %3, i64 1
  store i8 %53, ptr %54, align 1, !tbaa !6
  %55 = load i8, ptr %49, align 1, !tbaa !6
  %56 = shl i8 %55, 4
  %57 = getelementptr inbounds nuw i8, ptr %1, i64 2
  %58 = load i8, ptr %57, align 1, !tbaa !6
  %59 = lshr i8 %58, 2
  %60 = and i8 %59, 15
  %61 = or disjoint i8 %60, %56
  %62 = getelementptr inbounds nuw i8, ptr %3, i64 2
  store i8 %61, ptr %62, align 1, !tbaa !6
  %63 = load i8, ptr %57, align 1, !tbaa !6
  %64 = shl i8 %63, 6
  %65 = getelementptr inbounds nuw i8, ptr %1, i64 3
  %66 = load i8, ptr %65, align 1, !tbaa !6
  %67 = and i8 %66, 63
  %68 = or disjoint i8 %67, %64
  br label %69

69:                                               ; preds = %15, %46, %30, %8
  %.sink = phi i8 [ %26, %15 ], [ %68, %46 ], [ %45, %30 ], [ %11, %8 ]
  %70 = getelementptr inbounds nuw i8, ptr %3, i64 3
  store i8 %.sink, ptr %70, align 1, !tbaa !6
  ret i64 4
}